target datalayout = "e-m:e-p270:32:32-p271:32:32-p272:64:64-i64:64-i128:128-f80:128-n8:16:32:64-S128"
target triple = "x86_64-unknown-linux-gnu"

%struct.BlockDirtyBitmap = type { ptr, ptr }
%struct.BlockDirtyBitmapOrStr = type { i32, %union.anon.3 }
%union.anon.3 = type { %struct.BlockDirtyBitmap }

@.str.1 = private unnamed_addr constant [5 x i8] c"name\00", align 1
@.str.8 = private unnamed_addr constant [20 x i8] c"visit_is_dealloc(v)\00", align 1
@.str.9 = private unnamed_addr constant [29 x i8] c"qapi/qapi-visit-block-core.c\00", align 1
@.str.190 = private unnamed_addr constant [5 x i8] c"node\00", align 1
@__PRETTY_FUNCTION__.visit_type_BlockDirtyBitmapOrStr = private unnamed_addr constant [100 x i8] c"_Bool visit_type_BlockDirtyBitmapOrStr(Visitor *, const char *, BlockDirtyBitmapOrStr **, Error **)\00", align 1
@.str.223 = private unnamed_addr constant [18 x i8] c"visit_is_input(v)\00", align 1
@__func__.visit_type_BlockDirtyBitmapOrStr = private unnamed_addr constant [33 x i8] c"visit_type_BlockDirtyBitmapOrStr\00", align 1
@.str.224 = private unnamed_addr constant [46 x i8] c"Invalid parameter type for '%s', expected: %s\00", align 1
@.str.225 = private unnamed_addr constant [5 x i8] c"null\00", align 1
@.str.226 = private unnamed_addr constant [22 x i8] c"BlockDirtyBitmapOrStr\00", align 1

; Function Attrs: nounwind sspstrong uwtable
define dso_local zeroext i1 @visit_type_BlockDirtyBitmap_members(ptr noundef %v, ptr noundef %obj, ptr noundef %errp) #0 {
entry:
  %retval = alloca i1, align 1
  %v.addr = alloca ptr, align 8
  %obj.addr = alloca ptr, align 8
  %errp.addr = alloca ptr, align 8
  store ptr %v, ptr %v.addr, align 8
  store ptr %obj, ptr %obj.addr, align 8
  store ptr %errp, ptr %errp.addr, align 8
  %0 = load ptr, ptr %v.addr, align 8
  %1 = load ptr, ptr %obj.addr, align 8
  %node = getelementptr inbounds %struct.BlockDirtyBitmap, ptr %1, i32 0, i32 0
  %2 = load ptr, ptr %errp.addr, align 8
  %call = call zeroext i1 @visit_type_str(ptr noundef %0, ptr noundef @.str.190, ptr noundef %node, ptr noundef %2)
  br i1 %call, label %if.end, label %if.then

if.then:                                          ; preds = %entry
  store i1 false, ptr %retval, align 1
  br label %return

if.end:                                           ; preds = %entry
  %3 = load ptr, ptr %v.addr, align 8
  %4 = load ptr, ptr %obj.addr, align 8
  %name = getelementptr inbounds %struct.BlockDirtyBitmap, ptr %4, i32 0, i32 1
  %5 = load ptr, ptr %errp.addr, align 8
  %call1 = call zeroext i1 @visit_type_str(ptr noundef %3, ptr noundef @.str.1, ptr noundef %name, ptr noundef %5)
  br i1 %call1, label %if.end3, label %if.then2

if.then2:                                         ; preds = %if.end
  store i1 false, ptr %retval, align 1
  br label %return

if.end3:                                          ; preds = %if.end
  store i1 true, ptr %retval, align 1
  br label %return

return:                                           ; preds = %if.end3, %if.then2, %if.then
  %6 = load i1, ptr %retval, align 1
  ret i1 %6
}

; Function Attrs: nounwind sspstrong uwtable
define dso_local zeroext i1 @visit_type_BlockDirtyBitmapOrStr(ptr noundef %v, ptr noundef %name, ptr noundef %obj, ptr noundef %errp) #0 {
entry:
  %retval = alloca i1, align 1
  %v.addr = alloca ptr, align 8
  %name.addr = alloca ptr, align 8
  %obj.addr = alloca ptr, align 8
  %errp.addr = alloca ptr, align 8
  %ok = alloca i8, align 1
  store ptr %v, ptr %v.addr, align 8
  store ptr %name, ptr %name.addr, align 8
  store ptr %obj, ptr %obj.addr, align 8
  store ptr %errp, ptr %errp.addr, align 8
  store i8 0, ptr %ok, align 1
  %0 = load ptr, ptr %v.addr, align 8
  %1 = load ptr, ptr %name.addr, align 8
  %2 = load ptr, ptr %obj.addr, align 8
  %3 = load ptr, ptr %errp.addr, align 8
  %call = call zeroext i1 @visit_start_alternate(ptr noundef %0, ptr noundef %1, ptr noundef %2, i64 noundef 24, ptr noundef %3)
  br i1 %call, label %if.end, label %if.then

if.then:                                          ; preds = %entry
  store i1 false, ptr %retval, align 1
  br label %return

if.end:                                           ; preds = %entry
  %4 = load ptr, ptr %obj.addr, align 8
  %5 = load ptr, ptr %4, align 8
  %tobool = icmp ne ptr %5, null
  br i1 %tobool, label %if.end5, label %if.then1

if.then1:                                         ; preds = %if.end
  %6 = load ptr, ptr %v.addr, align 8
  %call2 = call zeroext i1 @visit_is_dealloc(ptr noundef %6)
  br i1 %call2, label %if.then3, label %if.else

if.then3:                                         ; preds = %if.then1
  br label %if.end4

if.else:                                          ; preds = %if.then1
  call void @__assert_fail(ptr noundef @.str.8, ptr noundef @.str.9, i32 noundef 3446, ptr noundef @__PRETTY_FUNCTION__.visit_type_BlockDirtyBitmapOrStr) #3
  unreachable

if.end4:                                          ; preds = %if.then3
  store i8 1, ptr %ok, align 1
  br label %out_obj

if.end5:                                          ; preds = %if.end
  %7 = load ptr, ptr %obj.addr, align 8
  %8 = load ptr, ptr %7, align 8
  %type = getelementptr inbounds %struct.BlockDirtyBitmapOrStr, ptr %8, i32 0, i32 0
  %9 = load i32, ptr %type, align 8
  switch i32 %9, label %sw.default [
    i32 3, label %sw.bb
    i32 4, label %sw.bb7
    i32 0, label %sw.bb17
  ]

sw.bb:                                            ; preds = %if.end5
  %10 = load ptr, ptr %v.addr, align 8
  %11 = load ptr, ptr %name.addr, align 8
  %12 = load ptr, ptr %obj.addr, align 8
  %13 = load ptr, ptr %12, align 8
  %u = getelementptr inbounds %struct.BlockDirtyBitmapOrStr, ptr %13, i32 0, i32 1
  %14 = load ptr, ptr %errp.addr, align 8
  %call6 = call zeroext i1 @visit_type_str(ptr noundef %10, ptr noundef %11, ptr noundef %u, ptr noundef %14)
  %frombool = zext i1 %call6 to i8
  store i8 %frombool, ptr %ok, align 1
  br label %sw.epilog

sw.bb7:                                           ; preds = %if.end5
  %15 = load ptr, ptr %v.addr, align 8
  %16 = load ptr, ptr %name.addr, align 8
  %17 = load ptr, ptr %errp.addr, align 8
  %call8 = call zeroext i1 @visit_start_struct(ptr noundef %15, ptr noundef %16, ptr noundef null, i64 noundef 0, ptr noundef %17)
  br i1 %call8, label %if.end10, label %if.then9

if.then9:                                         ; preds = %sw.bb7
  br label %sw.epilog

if.end10:                                         ; preds = %sw.bb7
  %18 = load ptr, ptr %v.addr, align 8
  %19 = load ptr, ptr %obj.addr, align 8
  %20 = load ptr, ptr %19, align 8
  %u11 = getelementptr inbounds %struct.BlockDirtyBitmapOrStr, ptr %20, i32 0, i32 1
  %21 = load ptr, ptr %errp.addr, align 8
  %call12 = call zeroext i1 @visit_type_BlockDirtyBitmap_members(ptr noundef %18, ptr noundef %u11, ptr noundef %21)
  br i1 %call12, label %if.then13, label %if.end16

if.then13:                                        ; preds = %if.end10
  %22 = load ptr, ptr %v.addr, align 8
  %23 = load ptr, ptr %errp.addr, align 8
  %call14 = call zeroext i1 @visit_check_struct(ptr noundef %22, ptr noundef %23)
  %frombool15 = zext i1 %call14 to i8
  store i8 %frombool15, ptr %ok, align 1
  br label %if.end16

if.end16:                                         ; preds = %if.then13, %if.end10
  %24 = load ptr, ptr %v.addr, align 8
  call void @visit_end_struct(ptr noundef %24, ptr noundef null)
  br label %sw.epilog

sw.bb17:                                          ; preds = %if.end5
  call void @abort() #3
  unreachable

sw.default:                                       ; preds = %if.end5
  %25 = load ptr, ptr %v.addr, align 8
  %call18 = call zeroext i1 @visit_is_input(ptr noundef %25)
  br i1 %call18, label %if.then19, label %if.else20

if.then19:                                        ; preds = %sw.default
  br label %if.end21

if.else20:                                        ; preds = %sw.default
  call void @__assert_fail(ptr noundef @.str.223, ptr noundef @.str.9, i32 noundef 3466, ptr noundef @__PRETTY_FUNCTION__.visit_type_BlockDirtyBitmapOrStr) #3
  unreachable

if.end21:                                         ; preds = %if.then19
  %26 = load ptr, ptr %errp.addr, align 8
  %27 = load ptr, ptr %name.addr, align 8
  %tobool22 = icmp ne ptr %27, null
  br i1 %tobool22, label %cond.true, label %cond.false

cond.true:                                        ; preds = %if.end21
  %28 = load ptr, ptr %name.addr, align 8
  br label %cond.end

cond.false:                                       ; preds = %if.end21
  br label %cond.end

cond.end:                                         ; preds = %cond.false, %cond.true
  %cond = phi ptr [ %28, %cond.true ], [ @.str.225, %cond.false ]
  call void (ptr, ptr, i32, ptr, ptr, ...) @error_setg_internal(ptr noundef %26, ptr noundef @.str.9, i32 noundef 3468, ptr noundef @__func__.visit_type_BlockDirtyBitmapOrStr, ptr noundef @.str.224, ptr noundef %cond, ptr noundef @.str.226)
  %29 = load ptr, ptr %obj.addr, align 8
  %30 = load ptr, ptr %29, align 8
  call void @g_free(ptr noundef %30)
  %31 = load ptr, ptr %obj.addr, align 8
  store ptr null, ptr %31, align 8
  br label %sw.epilog

sw.epilog:                                        ; preds = %cond.end, %if.end16, %if.then9, %sw.bb
  br label %out_obj

out_obj:                                          ; preds = %sw.epilog, %if.end4
  %32 = load ptr, ptr %v.addr, align 8
  %33 = load ptr, ptr %obj.addr, align 8
  call void @visit_end_alternate(ptr noundef %32, ptr noundef %33)
  %34 = load i8, ptr %ok, align 1
  %tobool23 = trunc i8 %34 to i1
  br i1 %tobool23, label %if.end26, label %land.lhs.true

land.lhs.true:                                    ; preds = %out_obj
  %35 = load ptr, ptr %v.addr, align 8
  %call24 = call zeroext i1 @visit_is_input(ptr noundef %35)
  br i1 %call24, label %if.then25, label %if.end26

if.then25:                                        ; preds = %land.lhs.true
  %36 = load ptr, ptr %obj.addr, align 8
  %37 = load ptr, ptr %36, align 8
  call void @qapi_free_BlockDirtyBitmapOrStr(ptr noundef %37)
  %38 = load ptr, ptr %obj.addr, align 8
  store ptr null, ptr %38, align 8
  br label %if.end26

if.end26:                                         ; preds = %if.then25, %land.lhs.true, %out_obj
  %39 = load i8, ptr %ok, align 1
  %tobool27 = trunc i8 %39 to i1
  store i1 %tobool27, ptr %retval, align 1
  br label %return

return:                                           ; preds = %if.end26, %if.then
  %40 = load i1, ptr %retval, align 1
  ret i1 %40
}