; Function Attrs: nounwind sspstrong uwtable
define dso_local noundef zeroext i1 @visit_type_BlockDirtyBitmapOrStr(ptr noundef %v, ptr noundef %name, ptr noundef %obj, ptr noundef %errp) local_unnamed_addr #0 {
entry:
  %call = tail call zeroext i1 @visit_start_alternate(ptr noundef %v, ptr noundef %name, ptr noundef %obj, i64 noundef 24, ptr noundef %errp) #5
  br i1 %call, label %if.end, label %return

if.end:                                           ; preds = %entry
  %0 = load ptr, ptr %obj, align 8
  %tobool.not = icmp eq ptr %0, null
  br i1 %tobool.not, label %if.then1, label %if.end5

if.then1:                                         ; preds = %if.end
  %call2 = tail call zeroext i1 @visit_is_dealloc(ptr noundef %v) #5
  br i1 %call2, label %out_obj.thread32, label %if.else

out_obj.thread32:                                 ; preds = %if.then1
  tail call void @visit_end_alternate(ptr noundef %v, ptr noundef nonnull %obj) #5
  br label %return

if.else:                                          ; preds = %if.then1
  tail call void @__assert_fail(ptr noundef nonnull @.str.8, ptr noundef nonnull @.str.9, i32 noundef 3446, ptr noundef nonnull @__PRETTY_FUNCTION__.visit_type_BlockDirtyBitmapOrStr) #6
  unreachable

if.end5:                                          ; preds = %if.end
  %1 = load i32, ptr %0, align 8
  switch i32 %1, label %sw.default [
    i32 3, label %out_obj
    i32 4, label %sw.bb7
    i32 0, label %sw.bb17
  ]

sw.bb7:                                           ; preds = %if.end5
  %call8 = tail call zeroext i1 @visit_start_struct(ptr noundef %v, ptr noundef %name, ptr noundef null, i64 noundef 0, ptr noundef %errp) #5
  br i1 %call8, label %if.end10, label %land.lhs.true.sink.split

if.end10:                                         ; preds = %sw.bb7
  %2 = load ptr, ptr %obj, align 8
  %u11 = getelementptr inbounds nuw i8, ptr %2, i64 8
  %call.i = tail call zeroext i1 @visit_type_str(ptr noundef %v, ptr noundef nonnull @.str.190, ptr noundef nonnull %u11, ptr noundef %errp) #5
  br i1 %call.i, label %visit_type_BlockDirtyBitmap_members.exit, label %land.lhs.true.critedge

visit_type_BlockDirtyBitmap_members.exit:         ; preds = %if.end10
  %name.i = getelementptr inbounds nuw i8, ptr %2, i64 16
  %call1.i = tail call zeroext i1 @visit_type_str(ptr noundef %v, ptr noundef nonnull @.str.1, ptr noundef nonnull %name.i, ptr noundef %errp) #5
  br i1 %call1.i, label %if.then13, label %land.lhs.true.critedge

if.then13:                                        ; preds = %visit_type_BlockDirtyBitmap_members.exit
  %call14 = tail call zeroext i1 @visit_check_struct(ptr noundef %v, ptr noundef %errp) #5
  tail call void @visit_end_struct(ptr noundef %v, ptr noundef null) #5
  tail call void @visit_end_alternate(ptr noundef %v, ptr noundef nonnull %obj) #5
  br i1 %call14, label %return, label %land.lhs.true

sw.bb17:                                          ; preds = %if.end5
  tail call void @abort() #6
  unreachable

sw.default:                                       ; preds = %if.end5
  %call18 = tail call zeroext i1 @visit_is_input(ptr noundef %v) #5
  br i1 %call18, label %if.end21, label %if.else20

if.else20:                                        ; preds = %sw.default
  tail call void @__assert_fail(ptr noundef nonnull @.str.223, ptr noundef nonnull @.str.9, i32 noundef 3466, ptr noundef nonnull @__PRETTY_FUNCTION__.visit_type_BlockDirtyBitmapOrStr) #6
  unreachable

if.end21:                                         ; preds = %sw.default
  %tobool22.not = icmp eq ptr %name, null
  %cond = select i1 %tobool22.not, ptr @.str.225, ptr %name
  tail call void (ptr, ptr, i32, ptr, ptr, ...) @error_setg_internal(ptr noundef %errp, ptr noundef nonnull @.str.9, i32 noundef 3468, ptr noundef nonnull @__func__.visit_type_BlockDirtyBitmapOrStr, ptr noundef nonnull @.str.224, ptr noundef nonnull %cond, ptr noundef nonnull @.str.226) #5
  %3 = load ptr, ptr %obj, align 8
  tail call void @g_free(ptr noundef %3) #5
  store ptr null, ptr %obj, align 8
  br label %land.lhs.true.sink.split

out_obj:                                          ; preds = %if.end5
  %u = getelementptr inbounds nuw i8, ptr %0, i64 8
  %call6 = tail call zeroext i1 @visit_type_str(ptr noundef %v, ptr noundef %name, ptr noundef nonnull %u, ptr noundef %errp) #5
  tail call void @visit_end_alternate(ptr noundef %v, ptr noundef nonnull %obj) #5
  br i1 %call6, label %return, label %land.lhs.true

land.lhs.true.critedge:                           ; preds = %if.end10, %visit_type_BlockDirtyBitmap_members.exit
  tail call void @visit_end_struct(ptr noundef %v, ptr noundef null) #5
  br label %land.lhs.true.sink.split

land.lhs.true.sink.split:                         ; preds = %sw.bb7, %if.end21, %land.lhs.true.critedge
  tail call void @visit_end_alternate(ptr noundef %v, ptr noundef nonnull %obj) #5
  br label %land.lhs.true

land.lhs.true:                                    ; preds = %land.lhs.true.sink.split, %if.then13, %out_obj
  %call24 = tail call zeroext i1 @visit_is_input(ptr noundef %v) #5
  br i1 %call24, label %if.then25, label %return

if.then25:                                        ; preds = %land.lhs.true
  %4 = load ptr, ptr %obj, align 8
  tail call void @qapi_free_BlockDirtyBitmapOrStr(ptr noundef %4) #5
  store ptr null, ptr %obj, align 8
  br label %return

return:                                           ; preds = %if.then13, %out_obj.thread32, %out_obj, %land.lhs.true, %if.then25, %entry
  %retval.0 = phi i1 [ false, %entry ], [ false, %if.then25 ], [ false, %land.lhs.true ], [ true, %out_obj ], [ true, %out_obj.thread32 ], [ true, %if.then13 ]
  ret i1 %retval.0
}